; Function Attrs: mustprogress nounwind uwtable
define internal fastcc void @_ZNSt8_Rb_treeImSt4pairIKmSt10unique_ptrIKN12_GLOBAL__N_113FilterChooserESt14default_deleteIS5_EEESt10_Select1stIS9_ESt4lessImESaIS9_EE8_M_eraseEPSt13_Rb_tree_nodeIS9_E(ptr noundef %0) unnamed_addr #0 align 2 {
  %.not1 = icmp eq ptr %0, null
  br i1 %.not1, label %._crit_edge, label %.lr.ph

.lr.ph:                                           ; preds = %1, %_ZNSt15__new_allocatorISt13_Rb_tree_nodeISt4pairIKmSt10unique_ptrIKN12_GLOBAL__N_113FilterChooserESt14default_deleteIS6_EEEEE7destroyISA_EEvPT_.exit
  %.02 = phi ptr [ %.0.val6, %_ZNSt15__new_allocatorISt13_Rb_tree_nodeISt4pairIKmSt10unique_ptrIKN12_GLOBAL__N_113FilterChooserESt14default_deleteIS6_EEEEE7destroyISA_EEvPT_.exit ], [ %0, %1 ]
  %2 = getelementptr i8, ptr %.02, i64 24
  %.0.val = load ptr, ptr %2, align 8
  tail call fastcc void @_ZNSt8_Rb_treeImSt4pairIKmSt10unique_ptrIKN12_GLOBAL__N_113FilterChooserESt14default_deleteIS5_EEESt10_Select1stIS9_ESt4lessImESaIS9_EE8_M_eraseEPSt13_Rb_tree_nodeIS9_E(ptr noundef %.0.val)
  %3 = getelementptr i8, ptr %.02, i64 16
  %.0.val6 = load ptr, ptr %3, align 8
  %4 = getelementptr inbounds nuw i8, ptr %.02, i64 40
  %5 = load ptr, ptr %4, align 8
  %.not.i.i = icmp eq ptr %5, null
  br i1 %.not.i.i, label %_ZNSt15__new_allocatorISt13_Rb_tree_nodeISt4pairIKmSt10unique_ptrIKN12_GLOBAL__N_113FilterChooserESt14default_deleteIS6_EEEEE7destroyISA_EEvPT_.exit, label %_ZNKSt14default_deleteIKN12_GLOBAL__N_113FilterChooserEEclEPS2_.exit.i.i

_ZNKSt14default_deleteIKN12_GLOBAL__N_113FilterChooserEEclEPS2_.exit.i.i: ; preds = %.lr.ph
  tail call fastcc void @_ZN12_GLOBAL__N_113FilterChooserD2Ev(ptr noundef nonnull align 8 dereferenceable(104) %5) #20
  tail call void @_ZdlPvm(ptr noundef nonnull %5, i64 noundef 104) #21
  br label %_ZNSt15__new_allocatorISt13_Rb_tree_nodeISt4pairIKmSt10unique_ptrIKN12_GLOBAL__N_113FilterChooserESt14default_deleteIS6_EEEEE7destroyISA_EEvPT_.exit

_ZNSt15__new_allocatorISt13_Rb_tree_nodeISt4pairIKmSt10unique_ptrIKN12_GLOBAL__N_113FilterChooserESt14default_deleteIS6_EEEEE7destroyISA_EEvPT_.exit: ; preds = %.lr.ph, %_ZNKSt14default_deleteIKN12_GLOBAL__N_113FilterChooserEEclEPS2_.exit.i.i
  tail call void @_ZdlPvm(ptr noundef nonnull %.02, i64 noundef 48) #21
  %.not = icmp eq ptr %.0.val6, null
  br i1 %.not, label %._crit_edge, label %.lr.ph, !llvm.loop !272

._crit_edge:                                      ; preds = %_ZNSt15__new_allocatorISt13_Rb_tree_nodeISt4pairIKmSt10unique_ptrIKN12_GLOBAL__N_113FilterChooserESt14default_deleteIS6_EEEEE7destroyISA_EEvPT_.exit, %1
  ret void
}